; Function Attrs: mustprogress uwtable
define void @_ZN5Yosys5RTLIL11const_shiftERKNS0_5ConstES3_bbi(ptr dead_on_unwind noalias writable sret(%"struct.Yosys::RTLIL::Const") align 8 %0, ptr noundef nonnull align 8 dereferenceable(40) %1, ptr noundef nonnull align 8 dereferenceable(40) %2, i1 noundef zeroext %3, i1 noundef zeroext %4, i32 noundef %5) local_unnamed_addr #3 personality ptr @__gxx_personality_v0 {
  %7 = alloca %"struct.Yosys::RTLIL::Const", align 8
  call void @llvm.lifetime.start.p0(i64 40, ptr nonnull %7) #19
  call void @_ZN5Yosys5RTLIL5ConstC1ERKS1_(ptr noundef nonnull align 8 dereferenceable(40) %7, ptr noundef nonnull align 8 dereferenceable(40) %1)
  %8 = invoke noundef i32 @_ZNK5Yosys5RTLIL5Const4sizeEv(ptr noundef nonnull align 8 dereferenceable(40) %1)
          to label %_ZN5Yosys7GetSizeINS_5RTLIL5ConstEEEiRKT_.exit unwind label %11

_ZN5Yosys7GetSizeINS_5RTLIL5ConstEEEiRKT_.exit:   ; preds = %6
  %.sroa.speculated = call i32 @llvm.smax.i32(i32 %5, i32 %8)
  invoke fastcc void @_ZN5YosysL9extend_u0ERNS_5RTLIL5ConstEib(ptr noundef nonnull align 8 dereferenceable(40) %7, i32 noundef %.sroa.speculated, i1 noundef zeroext %3)
          to label %9 unwind label %11

9:                                                ; preds = %_ZN5Yosys7GetSizeINS_5RTLIL5ConstEEEiRKT_.exit
  invoke fastcc void @_ZN5YosysL18const_shift_workerERKNS_5RTLIL5ConstES3_bbiiNS0_5StateE(ptr dead_on_unwind noalias writable align 8 %0, ptr noundef nonnull align 8 dereferenceable(40) %7, ptr noundef nonnull align 8 dereferenceable(40) %2, i1 noundef zeroext false, i1 noundef zeroext %4, i32 noundef 1, i32 noundef %5, i8 noundef zeroext 0)
          to label %10 unwind label %13

10:                                               ; preds = %9
  call void @_ZN5Yosys5RTLIL5ConstD1Ev(ptr noundef nonnull align 8 dereferenceable(40) %7) #19
  call void @llvm.lifetime.end.p0(i64 40, ptr nonnull %7) #19
  ret void

11:                                               ; preds = %6, %_ZN5Yosys7GetSizeINS_5RTLIL5ConstEEEiRKT_.exit
  %12 = landingpad { ptr, i32 }
          cleanup
  br label %15

13:                                               ; preds = %9
  %14 = landingpad { ptr, i32 }
          cleanup
  br label %15

15:                                               ; preds = %13, %11
  %.pn = phi { ptr, i32 } [ %14, %13 ], [ %12, %11 ]
  call void @_ZN5Yosys5RTLIL5ConstD1Ev(ptr noundef nonnull align 8 dereferenceable(40) %7) #19
  call void @llvm.lifetime.end.p0(i64 40, ptr nonnull %7) #19
  resume { ptr, i32 } %.pn
}